Certificate:
    Data:
        Version: 3 (0x2)
        Serial Number: 1 (0x1)
        Signature Algorithm: sha1WithRSAEncryption
        Issuer: C=CN, ST=JS, L=WX, O=WLW, OU=WLWAQ, CN=20131022CA/emailAddress=20131022CA@ciotc.org
        Validity
            Not Before: Oct 22 02:45:13 2013 GMT
            Not After : Oct 22 02:45:13 2014 GMT
        Subject: C=CN, ST=JS, O=WLW, OU=WLWAQ, CN=attacker/emailAddress=attacker@ciotc.org
        Subject Public Key Info:
            Public Key Algorithm: rsaEncryption
            RSA Public Key: (512 bit)
                Modulus (512 bit):
                    00:bc:e8:a8:19:30:c2:a9:a2:8f:86:1c:81:af:5f:
                    dc:f4:e6:3d:ae:cb:02:56:f2:9f:9b:25:3c:65:d5:
                    90:bb:0c:22:b9:36:ad:74:80:3d:8d:40:0a:2f:4b:
                    73:bf:41:d0:cf:e1:b2:31:fd:11:7e:37:18:a8:95:
                    d2:bd:15:4a:ab
                Exponent: 65537 (0x10001)
        X509v3 extensions:
            X509v3 Basic Constraints: 
                CA:FALSE
            Netscape Comment: 
                OpenSSL Generated Certificate
            X509v3 Subject Key Identifier: 
                DA:9D:AD:C6:D0:64:A3:87:CE:0D:61:47:7B:5D:11:C0:26:E7:DD:BE
            X509v3 Authority Key Identifier: 
                keyid:25:64:56:14:4C:8C:3B:92:3B:F8:E5:2D:8F:79:29:86:BD:DD:55:C3

    Signature Algorithm: sha1WithRSAEncryption
        18:03:9d:11:dd:b5:c8:20:b9:f6:c3:4c:16:3e:1f:ba:24:90:
        49:da:70:7c:cf:6d:1c:c6:37:90:76:1c:d7:6a:0b:f7:c9:e5:
        63:b2:08:38:60:04:a5:04:23:3f:76:4e:f2:72:5b:b4:57:ec:
        70:3c:2e:fd:d7:ad:bd:96:a2:e6:4a:38:30:3e:d4:9e:d2:88:
        c8:89:91:d2:34:5f:00:84:36:3d:6f:7a:af:d7:c3:71:df:af:
        22:3f:5c:df:58:27:c4:c2:0b:eb:e1:2b:1c:77:18:45:f8:14:
        e5:6a:33:84:44:1e:06:a3:a1:b2:04:c0:26:98:3e:94:6f:b2:
        a5:73
-----BEGIN CERTIFICATE-----
MIICmjCCAgOgAwIBAgIBATANBgkqhkiG9w0BAQUFADB/MQswCQYDVQQGEwJDTjEL
MAkGA1UECBMCSlMxCzAJBgNVBAcTAldYMQwwCgYDVQQKEwNXTFcxDjAMBgNVBAsT
BVdMV0FRMRMwEQYDVQQDEwoyMDEzMTAyMkNBMSMwIQYJKoZIhvcNAQkBFhQyMDEz
MTAyMkNBQGNpb3RjLm9yZzAeFw0xMzEwMjIwMjQ1MTNaFw0xNDEwMjIwMjQ1MTNa
MG4xCzAJBgNVBAYTAkNOMQswCQYDVQQIEwJKUzEMMAoGA1UEChMDV0xXMQ4wDAYD
VQQLEwVXTFdBUTERMA8GA1UEAxMIYXR0YWNrZXIxITAfBgkqhkiG9w0BCQEWEmF0
dGFja2VyQGNpb3RjLm9yZzBcMA0GCSqGSIb3DQEBAQUAA0sAMEgCQQC86KgZMMKp
oo+GHIGvX9z05j2uywJW8p+bJTxl1ZC7DCK5Nq10gD2NQAovS3O/QdDP4bIx/RF+
NxioldK9FUqrAgMBAAGjezB5MAkGA1UdEwQCMAAwLAYJYIZIAYb4QgENBB8WHU9w
ZW5TU0wgR2VuZXJhdGVkIENlcnRpZmljYXRlMB0GA1UdDgQWBBTana3G0GSjh84N
YUd7XRHAJufdvjAfBgNVHSMEGDAWgBQlZFYUTIw7kjv45S2PeSmGvd1VwzANBgkq
hkiG9w0BAQUFAAOBgQAYA50R3bXIILn2w0wWPh+6JJBJ2nB8z20cxjeQdhzXagv3
yeVjsgg4YASlBCM/dk7yclu0V+xwPC791629lqLmSjgwPtSe0ojIiZHSNF8AhDY9
b3qv18Nx368iP1zfWCfEwgvr4SscdxhF+BTlajOERB4Go6GyBMAmmD6Ub7Klcw==
-----END CERTIFICATE-----
